target datalayout = "e-m:e-p270:32:32-p271:32:32-p272:64:64-i64:64-i128:128-f80:128-n8:16:32:64-S128"
target triple = "x86_64-pc-linux-gnu"

@.str.11 = private unnamed_addr constant [2 x i8] c"r\00", align 1

; Function Attrs: nounwind uwtable
define dso_local i32 @linenoiseHistoryLoad(ptr noundef %0) #0 {
  %2 = alloca i32, align 4
  %3 = alloca ptr, align 8
  %4 = alloca ptr, align 8
  %5 = alloca [4096 x i8], align 16
  %6 = alloca i32, align 4
  %7 = alloca ptr, align 8
  store ptr %0, ptr %3, align 8, !tbaa !12
  call void @llvm.lifetime.start.p0(i64 8, ptr %4) #12
  %8 = load ptr, ptr %3, align 8, !tbaa !12
  %9 = call noalias ptr @fopen(ptr noundef %8, ptr noundef @.str.11)
  store ptr %9, ptr %4, align 8, !tbaa !45
  call void @llvm.lifetime.start.p0(i64 4096, ptr %5) #12
  %10 = load ptr, ptr %4, align 8, !tbaa !45
  %11 = icmp eq ptr %10, null
  br i1 %11, label %12, label %13

12:                                               ; preds = %1
  store i32 -1, ptr %2, align 4
  store i32 1, ptr %6, align 4
  br label %38

13:                                               ; preds = %1
  br label %14

14:                                               ; preds = %32, %13
  %15 = getelementptr inbounds [4096 x i8], ptr %5, i64 0, i64 0
  %16 = load ptr, ptr %4, align 8, !tbaa !45
  %17 = call ptr @fgets(ptr noundef %15, i32 noundef 4096, ptr noundef %16)
  %18 = icmp ne ptr %17, null
  br i1 %18, label %19, label %35

19:                                               ; preds = %14
  call void @llvm.lifetime.start.p0(i64 8, ptr %7) #12
  %20 = getelementptr inbounds [4096 x i8], ptr %5, i64 0, i64 0
  %21 = call ptr @strchr(ptr noundef %20, i32 noundef 13) #13
  store ptr %21, ptr %7, align 8, !tbaa !12
  %22 = load ptr, ptr %7, align 8, !tbaa !12
  %23 = icmp ne ptr %22, null
  br i1 %23, label %27, label %24

24:                                               ; preds = %19
  %25 = getelementptr inbounds [4096 x i8], ptr %5, i64 0, i64 0
  %26 = call ptr @strchr(ptr noundef %25, i32 noundef 10) #13
  store ptr %26, ptr %7, align 8, !tbaa !12
  br label %27

27:                                               ; preds = %24, %19
  %28 = load ptr, ptr %7, align 8, !tbaa !12
  %29 = icmp ne ptr %28, null
  br i1 %29, label %30, label %32

30:                                               ; preds = %27
  %31 = load ptr, ptr %7, align 8, !tbaa !12
  store i8 0, ptr %31, align 1, !tbaa !29
  br label %32

32:                                               ; preds = %30, %27
  %33 = getelementptr inbounds [4096 x i8], ptr %5, i64 0, i64 0
  %34 = call i32 @linenoiseHistoryAdd(ptr noundef %33, i32 noundef 0)
  call void @llvm.lifetime.end.p0(i64 8, ptr %7) #12
  br label %14, !llvm.loop !59

35:                                               ; preds = %14
  %36 = load ptr, ptr %4, align 8, !tbaa !45
  %37 = call i32 @fclose(ptr noundef %36)
  store i32 0, ptr %2, align 4
  store i32 1, ptr %6, align 4
  br label %38

38:                                               ; preds = %35, %12
  call void @llvm.lifetime.end.p0(i64 4096, ptr %5) #12
  call void @llvm.lifetime.end.p0(i64 8, ptr %4) #12
  %39 = load i32, ptr %2, align 4
  ret i32 %39
}