; Function Attrs: nounwind uwtable
define dso_local range(i32 -1, 1) i32 @linenoiseHistoryLoad(ptr noundef readonly captures(none) %0) local_unnamed_addr #10 {
  %2 = alloca [4096 x i8], align 16
  %3 = tail call noalias ptr @fopen(ptr noundef %0, ptr noundef nonnull @.str.11)
  call void @llvm.lifetime.start.p0(i64 4096, ptr nonnull %2) #24
  %4 = icmp eq ptr %3, null
  br i1 %4, label %13, label %.preheader

.preheader:                                       ; preds = %1
  %5 = call ptr @fgets(ptr noundef nonnull %2, i32 noundef 4096, ptr noundef nonnull %3)
  %.not14 = icmp eq ptr %5, null
  br i1 %.not14, label %._crit_edge, label %.lr.ph

.lr.ph:                                           ; preds = %.preheader, %9
  %6 = call ptr @strchr(ptr noundef nonnull dereferenceable(1) %2, i32 noundef 13) #25
  %.not9 = icmp eq ptr %6, null
  br i1 %.not9, label %7, label %.thread

7:                                                ; preds = %.lr.ph
  %8 = call ptr @strchr(ptr noundef nonnull dereferenceable(1) %2, i32 noundef 10) #25
  %.not10 = icmp eq ptr %8, null
  br i1 %.not10, label %9, label %.thread

.thread:                                          ; preds = %.lr.ph, %7
  %.013 = phi ptr [ %8, %7 ], [ %6, %.lr.ph ]
  store i8 0, ptr %.013, align 1, !tbaa !21
  br label %9

9:                                                ; preds = %.thread, %7
  %10 = call i32 @linenoiseHistoryAdd(ptr noundef nonnull %2, i32 noundef 0)
  %11 = call ptr @fgets(ptr noundef nonnull %2, i32 noundef 4096, ptr noundef nonnull %3)
  %.not = icmp eq ptr %11, null
  br i1 %.not, label %._crit_edge, label %.lr.ph, !llvm.loop !68

._crit_edge:                                      ; preds = %9, %.preheader
  %12 = call i32 @fclose(ptr noundef nonnull %3)
  br label %13

13:                                               ; preds = %1, %._crit_edge
  %.07 = phi i32 [ 0, %._crit_edge ], [ -1, %1 ]
  call void @llvm.lifetime.end.p0(i64 4096, ptr nonnull %2) #24
  ret i32 %.07
}